target datalayout = "e-m:e-p270:32:32-p271:32:32-p272:64:64-i64:64-i128:128-f80:128-n8:16:32:64-S128"
target triple = "x86_64-pc-linux-gnu"

%struct.H5AC_proxy_entry_t = type { %struct.H5C_cache_entry_t, i64, ptr, i64, i64, i64 }
%struct.H5C_cache_entry_t = type { ptr, i64, i64, ptr, i8, ptr, i8, i8, i8, i8, i32, i8, i8, i8, i8, i8, i32, ptr, i32, i32, i32, i32, i32, i8, i8, ptr, ptr, ptr, ptr, ptr, ptr, i8, i32, i8, i64, ptr, i64, i64, i32, i8, i32, i32, i8, ptr, ptr, ptr }

@H5AC_init_g = external global i8, align 1
@H5_libterm_g = external global i8, align 1
@.str.1 = private unnamed_addr constant [109 x i8] c"generated/home/dtcxzyw/WorkSpace/Projects/compilers/llvm-opt-benchmark/bench/hdf5/hdf5/src/H5ACproxy_entry.c\00", align 1
@H5E_FUNC_g = external global i64, align 8
@H5E_CANTINIT_g = external global i64, align 8
@.str.2 = private unnamed_addr constant [32 x i8] c"interface initialization failed\00", align 1
@H5E_CACHE_g = external global i64, align 8
@H5E_CANTALLOC_g = external global i64, align 8
@H5E_CANTINSERT_g = external global i64, align 8
@H5E_CANTDEPEND_g = external global i64, align 8
@.str.6 = private unnamed_addr constant [46 x i8] c"unable to set flush dependency on proxy entry\00", align 1
@__func__.H5AC_proxy_entry_add_child = private unnamed_addr constant [27 x i8] c"H5AC_proxy_entry_add_child\00", align 1
@.str.11 = private unnamed_addr constant [55 x i8] c"temporary file space allocation failed for proxy entry\00", align 1
@.str.12 = private unnamed_addr constant [28 x i8] c"unable to cache proxy entry\00", align 1
@H5E_CANTCLEAN_g = external global i64, align 8
@.str.13 = private unnamed_addr constant [29 x i8] c"can't mark proxy entry clean\00", align 1
@H5E_CANTSERIALIZE_g = external global i64, align 8
@H5E_BADITER_g = external global i64, align 8
@.str.14 = private unnamed_addr constant [20 x i8] c"can't visit parents\00", align 1

; Function Attrs: nounwind uwtable
define i32 @H5AC_proxy_entry_add_child(ptr noundef %0, ptr noundef %1, ptr noundef %2) #0 {
  %4 = alloca ptr, align 8
  %5 = alloca ptr, align 8
  %6 = alloca ptr, align 8
  %7 = alloca i32, align 4
  %8 = alloca i8, align 1
  store ptr %0, ptr %4, align 8, !tbaa !19
  store ptr %1, ptr %5, align 8, !tbaa !15
  store ptr %2, ptr %6, align 8, !tbaa !3
  call void @llvm.lifetime.start.p0(i64 4, ptr %7) #4
  store i32 0, ptr %7, align 4, !tbaa !17
  call void @llvm.lifetime.start.p0(i64 1, ptr %8) #4
  store i8 0, ptr %8, align 1, !tbaa !9
  %9 = load i8, ptr @H5AC_init_g, align 1, !tbaa !9, !range !11, !noundef !12
  %10 = trunc i8 %9 to i1
  br i1 %10, label %15, label %11

11:                                               ; preds = %3
  %12 = load i8, ptr @H5_libterm_g, align 1, !tbaa !9, !range !11, !noundef !12
  %13 = trunc i8 %12 to i1
  %14 = xor i1 %13, true
  br label %15

15:                                               ; preds = %11, %3
  %16 = phi i1 [ false, %3 ], [ %14, %11 ]
  %17 = xor i1 %16, true
  %18 = xor i1 %17, true
  %19 = zext i1 %18 to i32
  %20 = sext i32 %19 to i64
  %21 = call i64 @llvm.expect.i64(i64 %20, i64 0)
  %22 = icmp ne i64 %21, 0
  br i1 %22, label %23, label %46

23:                                               ; preds = %15
  store i8 1, ptr @H5AC_init_g, align 1, !tbaa !9
  %24 = call i32 @H5AC__init_package()
  %25 = icmp slt i32 %24, 0
  br i1 %25, label %26, label %45

26:                                               ; preds = %23
  store i8 0, ptr @H5AC_init_g, align 1, !tbaa !9
  br label %27

27:                                               ; preds = %26
  br label %28

28:                                               ; preds = %27
  br label %29

29:                                               ; preds = %28
  %30 = load i64, ptr @H5E_FUNC_g, align 8, !tbaa !13
  %31 = load i64, ptr @H5E_CANTINIT_g, align 8, !tbaa !13
  %32 = call i32 (ptr, ptr, i32, i64, i64, ptr, ...) @H5E_printf_stack(ptr noundef @.str.1, ptr noundef @__func__.H5AC_proxy_entry_add_child, i32 noundef 267, i64 noundef %30, i64 noundef %31, ptr noundef @.str.2)
  br label %33

33:                                               ; preds = %29
  br label %34

34:                                               ; preds = %33
  store i8 1, ptr %8, align 1, !tbaa !9
  %35 = load i8, ptr %8, align 1, !tbaa !9, !range !11, !noundef !12
  %36 = trunc i8 %35 to i1
  %37 = zext i1 %36 to i8
  store i8 %37, ptr %8, align 1, !tbaa !9
  br label %38

38:                                               ; preds = %34
  br label %39

39:                                               ; preds = %38
  br label %40

40:                                               ; preds = %39
  store i32 -1, ptr %7, align 4, !tbaa !17
  br label %232

41:                                               ; No predecessors!
  br label %42

42:                                               ; preds = %41
  br label %43

43:                                               ; preds = %42
  br label %44

44:                                               ; preds = %43
  br label %45

45:                                               ; preds = %44, %23
  br label %46

46:                                               ; preds = %45, %15
  %47 = load i8, ptr @H5AC_init_g, align 1, !tbaa !9, !range !11, !noundef !12
  %48 = trunc i8 %47 to i1
  br i1 %48, label %53, label %49

49:                                               ; preds = %46
  %50 = load i8, ptr @H5_libterm_g, align 1, !tbaa !9, !range !11, !noundef !12
  %51 = trunc i8 %50 to i1
  %52 = xor i1 %51, true
  br label %53

53:                                               ; preds = %49, %46
  %54 = phi i1 [ true, %46 ], [ %52, %49 ]
  %55 = xor i1 %54, true
  %56 = xor i1 %55, true
  %57 = zext i1 %56 to i32
  %58 = sext i32 %57 to i64
  %59 = call i64 @llvm.expect.i64(i64 %58, i64 1)
  %60 = icmp ne i64 %59, 0
  br i1 %60, label %61, label %233

61:                                               ; preds = %53
  %62 = load ptr, ptr %4, align 8, !tbaa !19
  %63 = getelementptr inbounds nuw %struct.H5AC_proxy_entry_t, ptr %62, i32 0, i32 3
  %64 = load i64, ptr %63, align 8, !tbaa !34
  %65 = icmp eq i64 0, %64
  br i1 %65, label %66, label %203

66:                                               ; preds = %61
  %67 = load ptr, ptr %4, align 8, !tbaa !19
  %68 = getelementptr inbounds nuw %struct.H5AC_proxy_entry_t, ptr %67, i32 0, i32 1
  %69 = load i64, ptr %68, align 8, !tbaa !31
  %70 = icmp ne i64 %69, -1
  br i1 %70, label %97, label %71

71:                                               ; preds = %66
  %72 = load ptr, ptr %5, align 8, !tbaa !15
  %73 = call i64 @H5MF_alloc_tmp(ptr noundef %72, i64 noundef 1)
  %74 = load ptr, ptr %4, align 8, !tbaa !19
  %75 = getelementptr inbounds nuw %struct.H5AC_proxy_entry_t, ptr %74, i32 0, i32 1
  store i64 %73, ptr %75, align 8, !tbaa !31
  %76 = icmp eq i64 -1, %73
  br i1 %76, label %77, label %96

77:                                               ; preds = %71
  br label %78

78:                                               ; preds = %77
  br label %79

79:                                               ; preds = %78
  br label %80

80:                                               ; preds = %79
  %81 = load i64, ptr @H5E_CACHE_g, align 8, !tbaa !13
  %82 = load i64, ptr @H5E_CANTALLOC_g, align 8, !tbaa !13
  %83 = call i32 (ptr, ptr, i32, i64, i64, ptr, ...) @H5E_printf_stack(ptr noundef @.str.1, ptr noundef @__func__.H5AC_proxy_entry_add_child, i32 noundef 279, i64 noundef %81, i64 noundef %82, ptr noundef @.str.11)
  br label %84

84:                                               ; preds = %80
  br label %85

85:                                               ; preds = %84
  store i8 1, ptr %8, align 1, !tbaa !9
  %86 = load i8, ptr %8, align 1, !tbaa !9, !range !11, !noundef !12
  %87 = trunc i8 %86 to i1
  %88 = zext i1 %87 to i8
  store i8 %88, ptr %8, align 1, !tbaa !9
  br label %89

89:                                               ; preds = %85
  br label %90

90:                                               ; preds = %89
  br label %91

91:                                               ; preds = %90
  store i32 -1, ptr %7, align 4, !tbaa !17
  br label %232

92:                                               ; No predecessors!
  br label %93

93:                                               ; preds = %92
  br label %94

94:                                               ; preds = %93
  br label %95

95:                                               ; preds = %94
  br label %96

96:                                               ; preds = %95, %71
  br label %97

97:                                               ; preds = %96, %66
  %98 = load ptr, ptr %5, align 8, !tbaa !15
  %99 = load ptr, ptr %4, align 8, !tbaa !19
  %100 = getelementptr inbounds nuw %struct.H5AC_proxy_entry_t, ptr %99, i32 0, i32 1
  %101 = load i64, ptr %100, align 8, !tbaa !31
  %102 = load ptr, ptr %4, align 8, !tbaa !19
  %103 = call i32 @H5AC_insert_entry(ptr noundef %98, ptr noundef @H5AC_PROXY_ENTRY, i64 noundef %101, ptr noundef %102, i32 noundef 4)
  %104 = icmp slt i32 %103, 0
  br i1 %104, label %105, label %124

105:                                              ; preds = %97
  br label %106

106:                                              ; preds = %105
  br label %107

107:                                              ; preds = %106
  br label %108

108:                                              ; preds = %107
  %109 = load i64, ptr @H5E_CACHE_g, align 8, !tbaa !13
  %110 = load i64, ptr @H5E_CANTINSERT_g, align 8, !tbaa !13
  %111 = call i32 (ptr, ptr, i32, i64, i64, ptr, ...) @H5E_printf_stack(ptr noundef @.str.1, ptr noundef @__func__.H5AC_proxy_entry_add_child, i32 noundef 283, i64 noundef %109, i64 noundef %110, ptr noundef @.str.12)
  br label %112

112:                                              ; preds = %108
  br label %113

113:                                              ; preds = %112
  store i8 1, ptr %8, align 1, !tbaa !9
  %114 = load i8, ptr %8, align 1, !tbaa !9, !range !11, !noundef !12
  %115 = trunc i8 %114 to i1
  %116 = zext i1 %115 to i8
  store i8 %116, ptr %8, align 1, !tbaa !9
  br label %117

117:                                              ; preds = %113
  br label %118

118:                                              ; preds = %117
  br label %119

119:                                              ; preds = %118
  store i32 -1, ptr %7, align 4, !tbaa !17
  br label %232

120:                                              ; No predecessors!
  br label %121

121:                                              ; preds = %120
  br label %122

122:                                              ; preds = %121
  br label %123

123:                                              ; preds = %122
  br label %124

124:                                              ; preds = %123, %97
  %125 = load ptr, ptr %4, align 8, !tbaa !19
  %126 = call i32 @H5AC_mark_entry_clean(ptr noundef %125)
  %127 = icmp slt i32 %126, 0
  br i1 %127, label %128, label %147

128:                                              ; preds = %124
  br label %129

129:                                              ; preds = %128
  br label %130

130:                                              ; preds = %129
  br label %131

131:                                              ; preds = %130
  %132 = load i64, ptr @H5E_CACHE_g, align 8, !tbaa !13
  %133 = load i64, ptr @H5E_CANTCLEAN_g, align 8, !tbaa !13
  %134 = call i32 (ptr, ptr, i32, i64, i64, ptr, ...) @H5E_printf_stack(ptr noundef @.str.1, ptr noundef @__func__.H5AC_proxy_entry_add_child, i32 noundef 287, i64 noundef %132, i64 noundef %133, ptr noundef @.str.13)
  br label %135

135:                                              ; preds = %131
  br label %136

136:                                              ; preds = %135
  store i8 1, ptr %8, align 1, !tbaa !9
  %137 = load i8, ptr %8, align 1, !tbaa !9, !range !11, !noundef !12
  %138 = trunc i8 %137 to i1
  %139 = zext i1 %138 to i8
  store i8 %139, ptr %8, align 1, !tbaa !9
  br label %140

140:                                              ; preds = %136
  br label %141

141:                                              ; preds = %140
  br label %142

142:                                              ; preds = %141
  store i32 -1, ptr %7, align 4, !tbaa !17
  br label %232

143:                                              ; No predecessors!
  br label %144

144:                                              ; preds = %143
  br label %145

145:                                              ; preds = %144
  br label %146

146:                                              ; preds = %145
  br label %147

147:                                              ; preds = %146, %124
  %148 = load ptr, ptr %4, align 8, !tbaa !19
  %149 = call i32 @H5AC_mark_entry_serialized(ptr noundef %148)
  %150 = icmp slt i32 %149, 0
  br i1 %150, label %151, label %170

151:                                              ; preds = %147
  br label %152

152:                                              ; preds = %151
  br label %153

153:                                              ; preds = %152
  br label %154

154:                                              ; preds = %153
  %155 = load i64, ptr @H5E_CACHE_g, align 8, !tbaa !13
  %156 = load i64, ptr @H5E_CANTSERIALIZE_g, align 8, !tbaa !13
  %157 = call i32 (ptr, ptr, i32, i64, i64, ptr, ...) @H5E_printf_stack(ptr noundef @.str.1, ptr noundef @__func__.H5AC_proxy_entry_add_child, i32 noundef 291, i64 noundef %155, i64 noundef %156, ptr noundef @.str.13)
  br label %158

158:                                              ; preds = %154
  br label %159

159:                                              ; preds = %158
  store i8 1, ptr %8, align 1, !tbaa !9
  %160 = load i8, ptr %8, align 1, !tbaa !9, !range !11, !noundef !12
  %161 = trunc i8 %160 to i1
  %162 = zext i1 %161 to i8
  store i8 %162, ptr %8, align 1, !tbaa !9
  br label %163

163:                                              ; preds = %159
  br label %164

164:                                              ; preds = %163
  br label %165

165:                                              ; preds = %164
  store i32 -1, ptr %7, align 4, !tbaa !17
  br label %232

166:                                              ; No predecessors!
  br label %167

167:                                              ; preds = %166
  br label %168

168:                                              ; preds = %167
  br label %169

169:                                              ; preds = %168
  br label %170

170:                                              ; preds = %169, %147
  %171 = load ptr, ptr %4, align 8, !tbaa !19
  %172 = getelementptr inbounds nuw %struct.H5AC_proxy_entry_t, ptr %171, i32 0, i32 2
  %173 = load ptr, ptr %172, align 8, !tbaa !33
  %174 = icmp ne ptr %173, null
  br i1 %174, label %175, label %202

175:                                              ; preds = %170
  %176 = load ptr, ptr %4, align 8, !tbaa !19
  %177 = getelementptr inbounds nuw %struct.H5AC_proxy_entry_t, ptr %176, i32 0, i32 2
  %178 = load ptr, ptr %177, align 8, !tbaa !33
  %179 = load ptr, ptr %4, align 8, !tbaa !19
  %180 = call i32 @H5SL_iterate(ptr noundef %178, ptr noundef @H5AC__proxy_entry_add_child_cb, ptr noundef %179)
  %181 = icmp slt i32 %180, 0
  br i1 %181, label %182, label %201

182:                                              ; preds = %175
  br label %183

183:                                              ; preds = %182
  br label %184

184:                                              ; preds = %183
  br label %185

185:                                              ; preds = %184
  %186 = load i64, ptr @H5E_CACHE_g, align 8, !tbaa !13
  %187 = load i64, ptr @H5E_BADITER_g, align 8, !tbaa !13
  %188 = call i32 (ptr, ptr, i32, i64, i64, ptr, ...) @H5E_printf_stack(ptr noundef @.str.1, ptr noundef @__func__.H5AC_proxy_entry_add_child, i32 noundef 297, i64 noundef %186, i64 noundef %187, ptr noundef @.str.14)
  br label %189

189:                                              ; preds = %185
  br label %190

190:                                              ; preds = %189
  store i8 1, ptr %8, align 1, !tbaa !9
  %191 = load i8, ptr %8, align 1, !tbaa !9, !range !11, !noundef !12
  %192 = trunc i8 %191 to i1
  %193 = zext i1 %192 to i8
  store i8 %193, ptr %8, align 1, !tbaa !9
  br label %194

194:                                              ; preds = %190
  br label %195

195:                                              ; preds = %194
  br label %196

196:                                              ; preds = %195
  store i32 -1, ptr %7, align 4, !tbaa !17
  br label %232

197:                                              ; No predecessors!
  br label %198

198:                                              ; preds = %197
  br label %199

199:                                              ; preds = %198
  br label %200

200:                                              ; preds = %199
  br label %201

201:                                              ; preds = %200, %175
  br label %202

202:                                              ; preds = %201, %170
  br label %203

203:                                              ; preds = %202, %61
  %204 = load ptr, ptr %4, align 8, !tbaa !19
  %205 = load ptr, ptr %6, align 8, !tbaa !3
  %206 = call i32 @H5AC_create_flush_dependency(ptr noundef %204, ptr noundef %205)
  %207 = icmp slt i32 %206, 0
  br i1 %207, label %208, label %227

208:                                              ; preds = %203
  br label %209

209:                                              ; preds = %208
  br label %210

210:                                              ; preds = %209
  br label %211

211:                                              ; preds = %210
  %212 = load i64, ptr @H5E_CACHE_g, align 8, !tbaa !13
  %213 = load i64, ptr @H5E_CANTDEPEND_g, align 8, !tbaa !13
  %214 = call i32 (ptr, ptr, i32, i64, i64, ptr, ...) @H5E_printf_stack(ptr noundef @.str.1, ptr noundef @__func__.H5AC_proxy_entry_add_child, i32 noundef 302, i64 noundef %212, i64 noundef %213, ptr noundef @.str.6)
  br label %215

215:                                              ; preds = %211
  br label %216

216:                                              ; preds = %215
  store i8 1, ptr %8, align 1, !tbaa !9
  %217 = load i8, ptr %8, align 1, !tbaa !9, !range !11, !noundef !12
  %218 = trunc i8 %217 to i1
  %219 = zext i1 %218 to i8
  store i8 %219, ptr %8, align 1, !tbaa !9
  br label %220

220:                                              ; preds = %216
  br label %221

221:                                              ; preds = %220
  br label %222

222:                                              ; preds = %221
  store i32 -1, ptr %7, align 4, !tbaa !17
  br label %232

223:                                              ; No predecessors!
  br label %224

224:                                              ; preds = %223
  br label %225

225:                                              ; preds = %224
  br label %226

226:                                              ; preds = %225
  br label %227

227:                                              ; preds = %226, %203
  %228 = load ptr, ptr %4, align 8, !tbaa !19
  %229 = getelementptr inbounds nuw %struct.H5AC_proxy_entry_t, ptr %228, i32 0, i32 3
  %230 = load i64, ptr %229, align 8, !tbaa !34
  %231 = add i64 %230, 1
  store i64 %231, ptr %229, align 8, !tbaa !34
  br label %232

232:                                              ; preds = %227, %222, %196, %165, %142, %119, %91, %40
  br label %233

233:                                              ; preds = %232, %53
  %234 = load i32, ptr %7, align 4, !tbaa !17
  call void @llvm.lifetime.end.p0(i64 1, ptr %8) #4
  call void @llvm.lifetime.end.p0(i64 4, ptr %7) #4
  ret i32 %234
}