; Function Attrs: nounwind uwtable
define range(i32 -1, 1) i32 @H5AC_proxy_entry_add_child(ptr noundef %0, ptr noundef %1, ptr noundef %2) local_unnamed_addr #1 {
  %4 = load i8, ptr @H5AC_init_g, align 1, !tbaa !3, !range !7, !noundef !8
  %5 = trunc nuw i8 %4 to i1
  %6 = load i8, ptr @H5_libterm_g, align 1, !range !7
  %7 = trunc nuw i8 %6 to i1
  %8 = select i1 %5, i1 true, i1 %7
  br i1 %8, label %16, label %9, !prof !9

9:                                                ; preds = %3
  store i8 1, ptr @H5AC_init_g, align 1, !tbaa !3
  %10 = tail call i32 @H5AC__init_package() #3
  %11 = icmp slt i32 %10, 0
  br i1 %11, label %12, label %._crit_edge

._crit_edge:                                      ; preds = %9
  %.pre = load i8, ptr @H5AC_init_g, align 1, !tbaa !3, !range !7
  %.pre24 = load i8, ptr @H5_libterm_g, align 1, !range !7
  %.pre25 = trunc nuw i8 %.pre to i1
  %.pre26 = trunc nuw i8 %.pre24 to i1
  br label %16

12:                                               ; preds = %9
  store i8 0, ptr @H5AC_init_g, align 1, !tbaa !3
  %13 = load i64, ptr @H5E_FUNC_g, align 8, !tbaa !10
  %14 = load i64, ptr @H5E_CANTINIT_g, align 8, !tbaa !10
  %15 = tail call i32 (ptr, ptr, i32, i64, i64, ptr, ...) @H5E_printf_stack(ptr noundef nonnull @.str.1, ptr noundef nonnull @__func__.H5AC_proxy_entry_add_child, i32 noundef 267, i64 noundef %13, i64 noundef %14, ptr noundef nonnull @.str.2) #3
  br label %75

16:                                               ; preds = %._crit_edge, %3
  %.pre-phi27 = phi i1 [ %.pre26, %._crit_edge ], [ %7, %3 ]
  %.pre-phi = phi i1 [ %.pre25, %._crit_edge ], [ %5, %3 ]
  %17 = xor i1 %.pre-phi27, true
  %18 = select i1 %.pre-phi, i1 true, i1 %17
  br i1 %18, label %19, label %75, !prof !9

19:                                               ; preds = %16
  %20 = getelementptr inbounds nuw i8, ptr %0, i64 264
  %21 = load i64, ptr %20, align 8, !tbaa !27
  %22 = icmp eq i64 %21, 0
  br i1 %22, label %23, label %65

23:                                               ; preds = %19
  %24 = getelementptr inbounds nuw i8, ptr %0, i64 248
  %25 = load i64, ptr %24, align 8, !tbaa !25
  %.not = icmp eq i64 %25, -1
  br i1 %.not, label %26, label %33

26:                                               ; preds = %23
  %27 = tail call i64 @H5MF_alloc_tmp(ptr noundef %1, i64 noundef 1) #3
  store i64 %27, ptr %24, align 8, !tbaa !25
  %28 = icmp eq i64 %27, -1
  br i1 %28, label %29, label %33

29:                                               ; preds = %26
  %30 = load i64, ptr @H5E_CACHE_g, align 8, !tbaa !10
  %31 = load i64, ptr @H5E_CANTALLOC_g, align 8, !tbaa !10
  %32 = tail call i32 (ptr, ptr, i32, i64, i64, ptr, ...) @H5E_printf_stack(ptr noundef nonnull @.str.1, ptr noundef nonnull @__func__.H5AC_proxy_entry_add_child, i32 noundef 279, i64 noundef %30, i64 noundef %31, ptr noundef nonnull @.str.11) #3
  br label %75

33:                                               ; preds = %26, %23
  %34 = phi i64 [ %27, %26 ], [ %25, %23 ]
  %35 = tail call i32 @H5AC_insert_entry(ptr noundef %1, ptr noundef nonnull @H5AC_PROXY_ENTRY, i64 noundef %34, ptr noundef nonnull %0, i32 noundef 4) #3
  %36 = icmp slt i32 %35, 0
  br i1 %36, label %37, label %41

37:                                               ; preds = %33
  %38 = load i64, ptr @H5E_CACHE_g, align 8, !tbaa !10
  %39 = load i64, ptr @H5E_CANTINSERT_g, align 8, !tbaa !10
  %40 = tail call i32 (ptr, ptr, i32, i64, i64, ptr, ...) @H5E_printf_stack(ptr noundef nonnull @.str.1, ptr noundef nonnull @__func__.H5AC_proxy_entry_add_child, i32 noundef 283, i64 noundef %38, i64 noundef %39, ptr noundef nonnull @.str.12) #3
  br label %75

41:                                               ; preds = %33
  %42 = tail call i32 @H5AC_mark_entry_clean(ptr noundef nonnull %0) #3
  %43 = icmp slt i32 %42, 0
  br i1 %43, label %44, label %48

44:                                               ; preds = %41
  %45 = load i64, ptr @H5E_CACHE_g, align 8, !tbaa !10
  %46 = load i64, ptr @H5E_CANTCLEAN_g, align 8, !tbaa !10
  %47 = tail call i32 (ptr, ptr, i32, i64, i64, ptr, ...) @H5E_printf_stack(ptr noundef nonnull @.str.1, ptr noundef nonnull @__func__.H5AC_proxy_entry_add_child, i32 noundef 287, i64 noundef %45, i64 noundef %46, ptr noundef nonnull @.str.13) #3
  br label %75

48:                                               ; preds = %41
  %49 = tail call i32 @H5AC_mark_entry_serialized(ptr noundef nonnull %0) #3
  %50 = icmp slt i32 %49, 0
  br i1 %50, label %51, label %55

51:                                               ; preds = %48
  %52 = load i64, ptr @H5E_CACHE_g, align 8, !tbaa !10
  %53 = load i64, ptr @H5E_CANTSERIALIZE_g, align 8, !tbaa !10
  %54 = tail call i32 (ptr, ptr, i32, i64, i64, ptr, ...) @H5E_printf_stack(ptr noundef nonnull @.str.1, ptr noundef nonnull @__func__.H5AC_proxy_entry_add_child, i32 noundef 291, i64 noundef %52, i64 noundef %53, ptr noundef nonnull @.str.13) #3
  br label %75

55:                                               ; preds = %48
  %56 = getelementptr inbounds nuw i8, ptr %0, i64 256
  %57 = load ptr, ptr %56, align 8, !tbaa !26
  %.not23 = icmp eq ptr %57, null
  br i1 %.not23, label %65, label %58

58:                                               ; preds = %55
  %59 = tail call i32 @H5SL_iterate(ptr noundef nonnull %57, ptr noundef nonnull @H5AC__proxy_entry_add_child_cb, ptr noundef nonnull %0) #3
  %60 = icmp slt i32 %59, 0
  br i1 %60, label %61, label %65

61:                                               ; preds = %58
  %62 = load i64, ptr @H5E_CACHE_g, align 8, !tbaa !10
  %63 = load i64, ptr @H5E_BADITER_g, align 8, !tbaa !10
  %64 = tail call i32 (ptr, ptr, i32, i64, i64, ptr, ...) @H5E_printf_stack(ptr noundef nonnull @.str.1, ptr noundef nonnull @__func__.H5AC_proxy_entry_add_child, i32 noundef 297, i64 noundef %62, i64 noundef %63, ptr noundef nonnull @.str.14) #3
  br label %75

65:                                               ; preds = %55, %58, %19
  %66 = tail call i32 @H5AC_create_flush_dependency(ptr noundef nonnull %0, ptr noundef %2) #3
  %67 = icmp slt i32 %66, 0
  br i1 %67, label %68, label %72

68:                                               ; preds = %65
  %69 = load i64, ptr @H5E_CACHE_g, align 8, !tbaa !10
  %70 = load i64, ptr @H5E_CANTDEPEND_g, align 8, !tbaa !10
  %71 = tail call i32 (ptr, ptr, i32, i64, i64, ptr, ...) @H5E_printf_stack(ptr noundef nonnull @.str.1, ptr noundef nonnull @__func__.H5AC_proxy_entry_add_child, i32 noundef 302, i64 noundef %69, i64 noundef %70, ptr noundef nonnull @.str.6) #3
  br label %75

72:                                               ; preds = %65
  %73 = load i64, ptr %20, align 8, !tbaa !27
  %74 = add i64 %73, 1
  store i64 %74, ptr %20, align 8, !tbaa !27
  br label %75

75:                                               ; preds = %12, %29, %37, %44, %51, %61, %68, %72, %16
  %.0 = phi i32 [ -1, %12 ], [ -1, %37 ], [ -1, %44 ], [ -1, %51 ], [ -1, %61 ], [ -1, %68 ], [ 0, %72 ], [ -1, %29 ], [ 0, %16 ]
  ret i32 %.0
}